libindiAlignmentDriver.so.1:_ZN4INDI18AlignmentSubsystem10ConvexHull10CheckEulerEiii
libindiAlignmentDriver.so.1:_ZN4INDI18AlignmentSubsystem10ConvexHull10CleanEdgesEv
libindiAlignmentDriver.so.1:_ZN4INDI18AlignmentSubsystem10ConvexHull10CleanFacesEv
libindiAlignmentDriver.so.1:_ZN4INDI18AlignmentSubsystem10ConvexHull10PrintEdgesERSt14basic_ofstreamIcSt11char_traitsIcEE
libindiAlignmentDriver.so.1:_ZN4INDI18AlignmentSubsystem10ConvexHull10PrintFacesERSt14basic_ofstreamIcSt11char_traitsIcEE
libindiAlignmentDriver.so.1:_ZN4INDI18AlignmentSubsystem10ConvexHull10PrintPointEPNS1_16tVertexStructureE
libindiAlignmentDriver.so.1:_ZN4INDI18AlignmentSubsystem10ConvexHull10VolumeSignEPNS1_14tFaceStructureEPNS1_16tVertexStructureE
libindiAlignmentDriver.so.1:_ZN4INDI18AlignmentSubsystem10ConvexHull11CheckEndptsEv
libindiAlignmentDriver.so.1:_ZN4INDI18AlignmentSubsystem10ConvexHull11ConsistencyEv
libindiAlignmentDriver.so.1:_ZN4INDI18AlignmentSubsystem10ConvexHull12MakeConeFaceEPNS1_14tEdgeStructureEPNS1_16tVertexStructureE
libindiAlignmentDriver.so.1:_ZN4INDI18AlignmentSubsystem10ConvexHull12MakeNullEdgeEv
libindiAlignmentDriver.so.1:_ZN4INDI18AlignmentSubsystem10ConvexHull12MakeNullFaceEv
libindiAlignmentDriver.so.1:_ZN4INDI18AlignmentSubsystem10ConvexHull12ReadVerticesEv
libindiAlignmentDriver.so.1:_ZN4INDI18AlignmentSubsystem10ConvexHull13CleanVerticesEPPNS1_16tVertexStructureE
libindiAlignmentDriver.so.1:_ZN4INDI18AlignmentSubsystem10ConvexHull13ConstructHullEv
libindiAlignmentDriver.so.1:_ZN4INDI18AlignmentSubsystem10ConvexHull13MakeNewVertexEdddi
libindiAlignmentDriver.so.1:_ZN4INDI18AlignmentSubsystem10ConvexHull13PrintVerticesERSt14basic_ofstreamIcSt11char_traitsIcEE
libindiAlignmentDriver.so.1:_ZN4INDI18AlignmentSubsystem10ConvexHull14DoubleTriangleEv
libindiAlignmentDriver.so.1:_ZN4INDI18AlignmentSubsystem10ConvexHull14MakeNullVertexEv
libindiAlignmentDriver.so.1:_ZN4INDI18AlignmentSubsystem10ConvexHull16EdgeOrderOnFacesEv
libindiAlignmentDriver.so.1:_ZN4INDI18AlignmentSubsystem10ConvexHull5PrintEv
libindiAlignmentDriver.so.1:_ZN4INDI18AlignmentSubsystem10ConvexHull5ResetEv
libindiAlignmentDriver.so.1:_ZN4INDI18AlignmentSubsystem10ConvexHull6AddOneEPNS1_16tVertexStructureE
libindiAlignmentDriver.so.1:_ZN4INDI18AlignmentSubsystem10ConvexHull6ChecksEv
libindiAlignmentDriver.so.1:_ZN4INDI18AlignmentSubsystem10ConvexHull6SubVecEPiS2_S2_
libindiAlignmentDriver.so.1:_ZN4INDI18AlignmentSubsystem10ConvexHull7CleanUpEPPNS1_16tVertexStructureE
libindiAlignmentDriver.so.1:_ZN4INDI18AlignmentSubsystem10ConvexHull7MakeCcwEPNS1_14tFaceStructureEPNS1_14tEdgeStructureEPNS1_16tVertexStructureE
libindiAlignmentDriver.so.1:_ZN4INDI18AlignmentSubsystem10ConvexHull7VolumeiEPNS1_14tFaceStructureEPNS1_16tVertexStructureE
libindiAlignmentDriver.so.1:_ZN4INDI18AlignmentSubsystem10ConvexHull8MakeFaceEPNS1_16tVertexStructureES3_S3_PNS1_14tFaceStructureE
libindiAlignmentDriver.so.1:_ZN4INDI18AlignmentSubsystem10ConvexHull8PrintObjEPKc
libindiAlignmentDriver.so.1:_ZN4INDI18AlignmentSubsystem10ConvexHull8PrintOutEPKcPNS1_16tVertexStructureE
libindiAlignmentDriver.so.1:_ZN4INDI18AlignmentSubsystem10ConvexHull9CollinearEPNS1_16tVertexStructureES3_S3_
libindiAlignmentDriver.so.1:_ZN4INDI18AlignmentSubsystem10ConvexHull9ConvexityEv
libindiAlignmentDriver.so.1:_ZN4INDI18AlignmentSubsystem10ConvexHullC1Ev
libindiAlignmentDriver.so.1:_ZN4INDI18AlignmentSubsystem10ConvexHullC2Ev
libindiAlignmentDriver.so.1:_ZN4INDI18AlignmentSubsystem10MathPlugin10InitialiseEPNS0_16InMemoryDatabaseE
libindiAlignmentDriver.so.1:_ZN4INDI18AlignmentSubsystem15BasicMathPlugin10InitialiseEPNS0_16InMemoryDatabaseE
libindiAlignmentDriver.so.1:_ZN4INDI18AlignmentSubsystem15BasicMathPlugin15MatrixInvert3x3EP10gsl_matrixS3_
libindiAlignmentDriver.so.1:_ZN4INDI18AlignmentSubsystem15BasicMathPlugin20Matrix3x3DeterminantEP10gsl_matrix
libindiAlignmentDriver.so.1:_ZN4INDI18AlignmentSubsystem15BasicMathPlugin20MatrixMatrixMultiplyEP10gsl_matrixS3_S3_
libindiAlignmentDriver.so.1:_ZN4INDI18AlignmentSubsystem15BasicMathPlugin20MatrixVectorMultiplyEP10gsl_matrixP10gsl_vectorS5_
libindiAlignmentDriver.so.1:_ZN4INDI18AlignmentSubsystem15BasicMathPlugin23RayTriangleIntersectionERNS0_24TelescopeDirectionVectorES3_S3_S3_
libindiAlignmentDriver.so.1:_ZN4INDI18AlignmentSubsystem15BasicMathPlugin29TransformCelestialToTelescopeEdddRNS0_24TelescopeDirectionVectorE
libindiAlignmentDriver.so.1:_ZN4INDI18AlignmentSubsystem15BasicMathPlugin29TransformTelescopeToCelestialERKNS0_24TelescopeDirectionVectorERdS5_
libindiAlignmentDriver.so.1:_ZN4INDI18AlignmentSubsystem15BasicMathPlugin5Dump3EPKcP10gsl_vector
libindiAlignmentDriver.so.1:_ZN4INDI18AlignmentSubsystem15BasicMathPlugin7Dump3x3EPKcP10gsl_matrix
libindiAlignmentDriver.so.1:_ZN4INDI18AlignmentSubsystem15BasicMathPluginC1Ev
libindiAlignmentDriver.so.1:_ZN4INDI18AlignmentSubsystem15BasicMathPluginC2Ev
libindiAlignmentDriver.so.1:_ZN4INDI18AlignmentSubsystem15BasicMathPluginD0Ev
libindiAlignmentDriver.so.1:_ZN4INDI18AlignmentSubsystem15BasicMathPluginD1Ev
libindiAlignmentDriver.so.1:_ZN4INDI18AlignmentSubsystem15BasicMathPluginD2Ev
libindiAlignmentDriver.so.1:_ZN4INDI18AlignmentSubsystem16InMemoryDatabase12LoadDatabaseEPKc
libindiAlignmentDriver.so.1:_ZN4INDI18AlignmentSubsystem16InMemoryDatabase12SaveDatabaseEPKc
libindiAlignmentDriver.so.1:_ZN4INDI18AlignmentSubsystem16InMemoryDatabase23SetLoadDatabaseCallbackEPFvPvES2_
libindiAlignmentDriver.so.1:_ZN4INDI18AlignmentSubsystem16InMemoryDatabase28GetDatabaseReferencePositionER13ln_lnlat_posn
libindiAlignmentDriver.so.1:_ZN4INDI18AlignmentSubsystem16InMemoryDatabase28SetDatabaseReferencePositionEdd
libindiAlignmentDriver.so.1:_ZN4INDI18AlignmentSubsystem16InMemoryDatabaseC1Ev
libindiAlignmentDriver.so.1:_ZN4INDI18AlignmentSubsystem16InMemoryDatabaseC2Ev
libindiAlignmentDriver.so.1:_ZN4INDI18AlignmentSubsystem17BuiltInMathPlugin26CalculateTransformMatricesERKNS0_24TelescopeDirectionVectorES4_S4_S4_S4_S4_P10gsl_matrixS6_
libindiAlignmentDriver.so.1:_ZN4INDI18AlignmentSubsystem20MathPluginManagement10InitialiseEPNS0_16InMemoryDatabaseE
libindiAlignmentDriver.so.1:_ZN4INDI18AlignmentSubsystem20MathPluginManagement14InitPropertiesEPNS_9TelescopeE
libindiAlignmentDriver.so.1:_ZN4INDI18AlignmentSubsystem20MathPluginManagement16EnumeratePluginsEv
libindiAlignmentDriver.so.1:_ZN4INDI18AlignmentSubsystem20MathPluginManagement20SaveConfigPropertiesEP8_IO_FILE
libindiAlignmentDriver.so.1:_ZN4INDI18AlignmentSubsystem20MathPluginManagement21ProcessTextPropertiesEPNS_9TelescopeEPKcPPcS7_i
libindiAlignmentDriver.so.1:_ZN4INDI18AlignmentSubsystem20MathPluginManagement23ProcessSwitchPropertiesEPNS_9TelescopeEPKcP7ISStatePPci
libindiAlignmentDriver.so.1:_ZN4INDI18AlignmentSubsystem20MathPluginManagement27SetAlignmentSubsystemActiveEb
libindiAlignmentDriver.so.1:_ZN4INDI18AlignmentSubsystem20MathPluginManagement28GetApproximateMountAlignmentEv
libindiAlignmentDriver.so.1:_ZN4INDI18AlignmentSubsystem20MathPluginManagement28SetApproximateMountAlignmentENS0_14MountAlignmentE
libindiAlignmentDriver.so.1:_ZN4INDI18AlignmentSubsystem20MathPluginManagement29TransformCelestialToTelescopeEdddRNS0_24TelescopeDirectionVectorE
libindiAlignmentDriver.so.1:_ZN4INDI18AlignmentSubsystem20MathPluginManagement29TransformTelescopeToCelestialERKNS0_24TelescopeDirectionVectorERdS5_
libindiAlignmentDriver.so.1:_ZN4INDI18AlignmentSubsystem20MathPluginManagement41SetApproximateMountAlignmentFromMountTypeENS1_9MountTypeE
libindiAlignmentDriver.so.1:_ZN4INDI18AlignmentSubsystem20MathPluginManagementC1Ev
libindiAlignmentDriver.so.1:_ZN4INDI18AlignmentSubsystem20MathPluginManagementC2Ev
libindiAlignmentDriver.so.1:_ZN4INDI18AlignmentSubsystem24TelescopeDirectionVector13RotateAroundYEd
libindiAlignmentDriver.so.1:_ZN4INDI18AlignmentSubsystem28AlignmentSubsystemForDrivers22MyDatabaseLoadCallbackEPv
libindiAlignmentDriver.so.1:_ZN4INDI18AlignmentSubsystem28AlignmentSubsystemForDrivers23InitAlignmentPropertiesEPNS_9TelescopeE
libindiAlignmentDriver.so.1:_ZN4INDI18AlignmentSubsystem28AlignmentSubsystemForDrivers29SaveAlignmentConfigPropertiesEP8_IO_FILE
libindiAlignmentDriver.so.1:_ZN4INDI18AlignmentSubsystem28AlignmentSubsystemForDrivers30ProcessAlignmentBLOBPropertiesEPNS_9TelescopeEPKcPiS6_PPcS8_S8_i
libindiAlignmentDriver.so.1:_ZN4INDI18AlignmentSubsystem28AlignmentSubsystemForDrivers30ProcessAlignmentTextPropertiesEPNS_9TelescopeEPKcPPcS7_i
libindiAlignmentDriver.so.1:_ZN4INDI18AlignmentSubsystem28AlignmentSubsystemForDrivers32ProcessAlignmentNumberPropertiesEPNS_9TelescopeEPKcPdPPci
libindiAlignmentDriver.so.1:_ZN4INDI18AlignmentSubsystem28AlignmentSubsystemForDrivers32ProcessAlignmentSwitchPropertiesEPNS_9TelescopeEPKcP7ISStatePPci
libindiAlignmentDriver.so.1:_ZN4INDI18AlignmentSubsystem28AlignmentSubsystemForDriversC1Ev
libindiAlignmentDriver.so.1:_ZN4INDI18AlignmentSubsystem28AlignmentSubsystemForDriversC2Ev
libindiAlignmentDriver.so.1:_ZN4INDI18AlignmentSubsystem31MapPropertiesToInMemoryDatabase10UpdateSizeEv
libindiAlignmentDriver.so.1:_ZN4INDI18AlignmentSubsystem31MapPropertiesToInMemoryDatabase14InitPropertiesEPNS_9TelescopeE
libindiAlignmentDriver.so.1:_ZN4INDI18AlignmentSubsystem31MapPropertiesToInMemoryDatabase14UpdateLocationEddd
libindiAlignmentDriver.so.1:_ZN4INDI18AlignmentSubsystem31MapPropertiesToInMemoryDatabase21ProcessBlobPropertiesEPNS_9TelescopeEPKcPiS6_PPcS8_S8_i
libindiAlignmentDriver.so.1:_ZN4INDI18AlignmentSubsystem31MapPropertiesToInMemoryDatabase23ProcessNumberPropertiesEPNS_9TelescopeEPKcPdPPci
libindiAlignmentDriver.so.1:_ZN4INDI18AlignmentSubsystem31MapPropertiesToInMemoryDatabase23ProcessSwitchPropertiesEPNS_9TelescopeEPKcP7ISStatePPci
libindiAlignmentDriver.so.1:_ZN4INDI18AlignmentSubsystem40TelescopeDirectionVectorSupportFunctions47SphericalCoordinateFromTelescopeDirectionVectorENS0_24TelescopeDirectionVectorERdNS1_21AzimuthAngleDirectionES3_NS1_19PolarAngleDirectionE
libindiAlignmentDriver.so.1:_ZN4INDI18AlignmentSubsystem40TelescopeDirectionVectorSupportFunctions47TelescopeDirectionVectorFromSphericalCoordinateEdNS1_21AzimuthAngleDirectionEdNS1_19PolarAngleDirectionE
libindiAlignmentDriver.so.1:_ZNK4INDI18AlignmentSubsystem16InMemoryDatabase26CheckForDuplicateSyncPointERKNS0_22AlignmentDatabaseEntryEd
libindiAlignmentDriver.so.1:_ZThn24_N4INDI18AlignmentSubsystem15BasicMathPluginD0Ev
libindiAlignmentDriver.so.1:_ZThn24_N4INDI18AlignmentSubsystem15BasicMathPluginD1Ev
libindidriver.so.1:BGR2YUV
libindidriver.so.1:IDDefBLOB
libindidriver.so.1:IDDefLight
libindidriver.so.1:IDDefNumber
libindidriver.so.1:IDDefSwitch
libindidriver.so.1:IDDefText
libindidriver.so.1:IDDelete
libindidriver.so.1:IDLog
libindidriver.so.1:IDMessage
libindidriver.so.1:IDSetBLOB
libindidriver.so.1:IDSetLight
libindidriver.so.1:IDSetNumber
libindidriver.so.1:IDSetSwitch
libindidriver.so.1:IDSetText
libindidriver.so.1:IDSnoopBLOBs
libindidriver.so.1:IDSnoopDevice
libindidriver.so.1:IEAddCallback
libindidriver.so.1:IEAddTimer
libindidriver.so.1:IEAddWorkProc
libindidriver.so.1:IEDeferLoop
libindidriver.so.1:IEDeferLoop0
libindidriver.so.1:IERmCallback
libindidriver.so.1:IERmTimer
libindidriver.so.1:IERmWorkProc
libindidriver.so.1:IUFillBLOB
libindidriver.so.1:IUFillBLOBVector
libindidriver.so.1:IUFillLight
libindidriver.so.1:IUFillLightVector
libindidriver.so.1:IUFillNumber
libindidriver.so.1:IUFillNumberVector
libindidriver.so.1:IUFillSwitch
libindidriver.so.1:IUFillSwitchVector
libindidriver.so.1:IUFillText
libindidriver.so.1:IUFillTextVector
libindidriver.so.1:IUFindBLOB
libindidriver.so.1:IUFindIndex
libindidriver.so.1:IUFindLight
libindidriver.so.1:IUFindNumber
libindidriver.so.1:IUFindOnSwitch
libindidriver.so.1:IUFindOnSwitchIndex
libindidriver.so.1:IUFindOnSwitchName
libindidriver.so.1:IUFindSwitch
libindidriver.so.1:IUFindText
libindidriver.so.1:IUGetConfigFP
libindidriver.so.1:IUGetConfigNumber
libindidriver.so.1:IUReadConfig
libindidriver.so.1:IUResetSwitch
libindidriver.so.1:IUSaveBLOB
libindidriver.so.1:IUSaveConfigBLOB
libindidriver.so.1:IUSaveConfigNumber
libindidriver.so.1:IUSaveConfigSwitch
libindidriver.so.1:IUSaveConfigTag
libindidriver.so.1:IUSaveConfigText
libindidriver.so.1:IUSaveDefaultConfig
libindidriver.so.1:IUSaveText
libindidriver.so.1:IUSnoopBLOB
libindidriver.so.1:IUSnoopLight
libindidriver.so.1:IUSnoopNumber
libindidriver.so.1:IUSnoopSwitch
libindidriver.so.1:IUSnoopText
libindidriver.so.1:IUUpdateBLOB
libindidriver.so.1:IUUpdateMinMax
libindidriver.so.1:IUUpdateNumber
libindidriver.so.1:IUUpdateSwitch
libindidriver.so.1:IUUpdateText
libindidriver.so.1:InitLookupTable
libindidriver.so.1:RGB2YUV
libindidriver.so.1:_Z9timerfuncPv
libindidriver.so.1:_ZN10Connection15dev_file_selectEPK6dirent
libindidriver.so.1:_ZN10Connection3TCP10DisconnectEv
libindidriver.so.1:_ZN10Connection3TCP11DeactivatedEv
libindidriver.so.1:_ZN10Connection3TCP11ISNewSwitchEPKcS2_P7ISStatePPci
libindidriver.so.1:_ZN10Connection3TCP14setDefaultHostEPKc
libindidriver.so.1:_ZN10Connection3TCP14setDefaultPortEj
libindidriver.so.1:_ZN10Connection3TCP15saveConfigItemsEP8_IO_FILE
libindidriver.so.1:_ZN10Connection3TCP17setConnectionTypeEi
libindidriver.so.1:_ZN10Connection3TCP7ConnectEv
libindidriver.so.1:_ZN10Connection3TCP9ActivatedEv
libindidriver.so.1:_ZN10Connection3TCP9ISNewTextEPKcS2_PPcS4_i
libindidriver.so.1:_ZN10Connection3TCPC1EPN4INDI13DefaultDeviceE
libindidriver.so.1:_ZN10Connection3TCPC2EPN4INDI13DefaultDeviceE
libindidriver.so.1:_ZN10Connection6Serial10DisconnectEv
libindidriver.so.1:_ZN10Connection6Serial11DeactivatedEv
libindidriver.so.1:_ZN10Connection6Serial11ISNewSwitchEPKcS2_P7ISStatePPci
libindidriver.so.1:_ZN10Connection6Serial14setDefaultPortEPKc
libindidriver.so.1:_ZN10Connection6Serial15saveConfigItemsEP8_IO_FILE
libindidriver.so.1:_ZN10Connection6Serial16processHandshakeEv
libindidriver.so.1:_ZN10Connection6Serial18setDefaultBaudRateENS0_8BaudRateE
libindidriver.so.1:_ZN10Connection6Serial4baudEv
libindidriver.so.1:_ZN10Connection6Serial7ConnectEPKcj
libindidriver.so.1:_ZN10Connection6Serial7ConnectEv
libindidriver.so.1:_ZN10Connection6Serial7RefreshEb
libindidriver.so.1:_ZN10Connection6Serial9ActivatedEv
libindidriver.so.1:_ZN10Connection6Serial9ISNewTextEPKcS2_PPcS4_i
libindidriver.so.1:_ZN10Connection6SerialC1EPN4INDI13DefaultDeviceE
libindidriver.so.1:_ZN10Connection6SerialC2EPN4INDI13DefaultDeviceE
libindidriver.so.1:_ZN10Connection6SerialD0Ev
libindidriver.so.1:_ZN10Connection6SerialD1Ev
libindidriver.so.1:_ZN10Connection6SerialD2Ev
libindidriver.so.1:_ZN10Connection9Interface11ISNewNumberEPKcS2_PdPPci
libindidriver.so.1:_ZN10Connection9Interface11ISNewSwitchEPKcS2_P7ISStatePPci
libindidriver.so.1:_ZN10Connection9Interface13getDeviceNameEv
libindidriver.so.1:_ZN10Connection9Interface15saveConfigItemsEP8_IO_FILE
libindidriver.so.1:_ZN10Connection9Interface17registerHandshakeESt8functionIFbvEE
libindidriver.so.1:_ZN10Connection9Interface9ISNewTextEPKcS2_PPcS4_i
libindidriver.so.1:_ZN10Connection9InterfaceC1EPN4INDI13DefaultDeviceENS0_4TypeE
libindidriver.so.1:_ZN10Connection9InterfaceC2EPN4INDI13DefaultDeviceENS0_4TypeE
libindidriver.so.1:_ZN10Connection9InterfaceD0Ev
libindidriver.so.1:_ZN10Connection9InterfaceD1Ev
libindidriver.so.1:_ZN10Connection9InterfaceD2Ev
libindidriver.so.1:_ZN11V4L2_Decode10getDecoderEv
libindidriver.so.1:_ZN11V4L2_Decode10setDecoderEP12V4L2_Decoder
libindidriver.so.1:_ZN11V4L2_Decode14getDecoderListEv
libindidriver.so.1:_ZN11V4L2_Decode17getDefaultDecoderEv
libindidriver.so.1:_ZN11V4L2_DecodeC1Ev
libindidriver.so.1:_ZN11V4L2_DecodeC2Ev
libindidriver.so.1:_ZN11V4L2_DecodeD1Ev
libindidriver.so.1:_ZN11V4L2_DecodeD2Ev
libindidriver.so.1:_ZN12V4L2_Decoder7getNameEv
libindidriver.so.1:_ZN12V4L2_DecoderC1Ev
libindidriver.so.1:_ZN12V4L2_DecoderC2Ev
libindidriver.so.1:_ZN12V4L2_DecoderD0Ev
libindidriver.so.1:_ZN12V4L2_DecoderD1Ev
libindidriver.so.1:_ZN12V4L2_DecoderD2Ev
libindidriver.so.1:_ZN14DetectorDevice12setFrequencyEf
libindidriver.so.1:_ZN14DetectorDevice13setMinMaxStepEPKcS1_dddb
libindidriver.so.1:_ZN14DetectorDevice13setSampleRateEf
libindidriver.so.1:_ZN14DetectorDevice14setCaptureLeftEd
libindidriver.so.1:_ZN14DetectorDevice16setCaptureFailedEv
libindidriver.so.1:_ZN14DetectorDevice18setCaptureDurationEd
libindidriver.so.1:_ZN14DetectorDevice19getCaptureStartTimeEv
libindidriver.so.1:_ZN14DetectorDevice19setCaptureExtensionEPKc
libindidriver.so.1:_ZN14DetectorDevice21setSpectrumBufferSizeEib
libindidriver.so.1:_ZN14DetectorDevice22setContinuumBufferSizeEib
libindidriver.so.1:_ZN14DetectorDevice6setBPSEi
libindidriver.so.1:_ZN14DetectorDevice8setNAxisEi
libindidriver.so.1:_ZN14DetectorDeviceC1Ev
libindidriver.so.1:_ZN14DetectorDeviceC2Ev
libindidriver.so.1:_ZN14DetectorDeviceD1Ev
libindidriver.so.1:_ZN14DetectorDeviceD2Ev
libindidriver.so.1:_ZN20V4L2_Builtin_Decoder10getLinearYEv
libindidriver.so.1:_ZN20V4L2_Builtin_Decoder11makeLinearYEv
libindidriver.so.1:_ZN20V4L2_Builtin_Decoder11usesoftcropEb
libindidriver.so.1:_ZN20V4L2_Builtin_Decoder12allocBuffersEv
libindidriver.so.1:_ZN20V4L2_Builtin_Decoder12getRGBBufferEv
libindidriver.so.1:_ZN20V4L2_Builtin_Decoder15setQuantizationEb
libindidriver.so.1:_ZN20V4L2_Builtin_Decoder16setLinearizationEb
libindidriver.so.1:_ZN20V4L2_Builtin_Decoder17issupportedformatEj
libindidriver.so.1:_ZN20V4L2_Builtin_Decoder19getsupportedformatsEv
libindidriver.so.1:_ZN20V4L2_Builtin_Decoder22init_supported_formatsEv
libindidriver.so.1:_ZN20V4L2_Builtin_Decoder4getUEv
libindidriver.so.1:_ZN20V4L2_Builtin_Decoder4getVEv
libindidriver.so.1:_ZN20V4L2_Builtin_Decoder4getYEv
libindidriver.so.1:_ZN20V4L2_Builtin_Decoder4initEv
libindidriver.so.1:_ZN20V4L2_Builtin_Decoder5makeYEv
libindidriver.so.1:_ZN20V4L2_Builtin_Decoder6decodeEPhP11v4l2_buffer
libindidriver.so.1:_ZN20V4L2_Builtin_Decoder6getBppEv
libindidriver.so.1:_ZN20V4L2_Builtin_Decoder7setcropE9v4l2_crop
libindidriver.so.1:_ZN20V4L2_Builtin_Decoder9resetcropEv
libindidriver.so.1:_ZN20V4L2_Builtin_Decoder9setformatE11v4l2_formatb
libindidriver.so.1:_ZN20V4L2_Builtin_DecoderC1Ev
libindidriver.so.1:_ZN20V4L2_Builtin_DecoderC2Ev
libindidriver.so.1:_ZN20V4L2_Builtin_DecoderD0Ev
libindidriver.so.1:_ZN20V4L2_Builtin_DecoderD1Ev
libindidriver.so.1:_ZN20V4L2_Builtin_DecoderD2Ev
libindidriver.so.1:_ZN4INDI10BaseDevice10addMessageERKNSt7__cxx1112basic_stringIcSt11char_traitsIcESaIcEEE
libindidriver.so.1:_ZN4INDI10BaseDevice11getPropertyEPKc18INDI_PROPERTY_TYPE
libindidriver.so.1:_ZN4INDI10BaseDevice11isConnectedEv
libindidriver.so.1:_ZN4INDI10BaseDevice11lastMessageB5cxx11Ev
libindidriver.so.1:_ZN4INDI10BaseDevice12checkMessageEP8_xml_ele
libindidriver.so.1:_ZN4INDI10BaseDevice13buildSkeletonEPKc
libindidriver.so.1:_ZN4INDI10BaseDevice13getDeviceNameEv
libindidriver.so.1:_ZN4INDI10BaseDevice13getDriverExecEv
libindidriver.so.1:_ZN4INDI10BaseDevice13getDriverNameEv
libindidriver.so.1:_ZN4INDI10BaseDevice13setDeviceNameEPKc
libindidriver.so.1:_ZN4INDI10BaseDevice14getRawPropertyEPKc18INDI_PROPERTY_TYPE
libindidriver.so.1:_ZN4INDI10BaseDevice14removePropertyEPKcPc
libindidriver.so.1:_ZN4INDI10BaseDevice16getDriverVersionEv
libindidriver.so.1:_ZN4INDI10BaseDevice16getPropertyStateEPKc
libindidriver.so.1:_ZN4INDI10BaseDevice16registerPropertyEPv18INDI_PROPERTY_TYPE
libindidriver.so.1:_ZN4INDI10BaseDevice18getDriverInterfaceEv
libindidriver.so.1:_ZN4INDI10BaseDevice21getPropertyPermissionEPKc
libindidriver.so.1:_ZN4INDI10BaseDevice7getBLOBEPKc
libindidriver.so.1:_ZN4INDI10BaseDevice7getTextEPKc
libindidriver.so.1:_ZN4INDI10BaseDevice7setBLOBEP20_IBLOBVectorPropertyP8_xml_elePc
libindidriver.so.1:_ZN4INDI10BaseDevice8getLightEPKc
libindidriver.so.1:_ZN4INDI10BaseDevice8setValueEP8_xml_elePc
libindidriver.so.1:_ZN4INDI10BaseDevice9buildPropEP8_xml_elePc
libindidriver.so.1:_ZN4INDI10BaseDevice9doMessageEP8_xml_ele
libindidriver.so.1:_ZN4INDI10BaseDevice9getNumberEPKc
libindidriver.so.1:_ZN4INDI10BaseDevice9getSwitchEPKc
libindidriver.so.1:_ZN4INDI10BaseDeviceC1Ev
libindidriver.so.1:_ZN4INDI10BaseDeviceC2Ev
libindidriver.so.1:_ZN4INDI10BaseDeviceD0Ev
libindidriver.so.1:_ZN4INDI10BaseDeviceD1Ev
libindidriver.so.1:_ZN4INDI10BaseDeviceD2Ev
libindidriver.so.1:_ZN4INDI10Controller11ISNewSwitchEPKcS2_P7ISStatePPci
libindidriver.so.1:_ZN4INDI10Controller11buttonEventEPKciPv
libindidriver.so.1:_ZN4INDI10Controller13ISSnoopDeviceEP8_xml_ele
libindidriver.so.1:_ZN4INDI10Controller13joystickEventEPKcddPv
libindidriver.so.1:_ZN4INDI10Controller13mapControllerEPKcS2_NS0_14ControllerTypeES2_
libindidriver.so.1:_ZN4INDI10Controller14enableJoystickEv
libindidriver.so.1:_ZN4INDI10Controller14initPropertiesEv
libindidriver.so.1:_ZN4INDI10Controller15ISGetPropertiesEPKc
libindidriver.so.1:_ZN4INDI10Controller15disableJoystickEv
libindidriver.so.1:_ZN4INDI10Controller15saveConfigItemsEP8_IO_FILE
libindidriver.so.1:_ZN4INDI10Controller15setAxisCallbackESt8functionIFvPKcdPvEE
libindidriver.so.1:_ZN4INDI10Controller16updatePropertiesEv
libindidriver.so.1:_ZN4INDI10Controller17getControllerTypeEPKc
libindidriver.so.1:_ZN4INDI10Controller17setButtonCallbackESt8functionIFvPKc7ISStatePvEE
libindidriver.so.1:_ZN4INDI10Controller19setJoystickCallbackESt8functionIFvPKcddPvEE
libindidriver.so.1:_ZN4INDI10Controller20getControllerSettingEPKc
libindidriver.so.1:_ZN4INDI10Controller8clearMapEv
libindidriver.so.1:_ZN4INDI10Controller9ISNewTextEPKcS2_PPcS4_i
libindidriver.so.1:_ZN4INDI10Controller9axisEventEPKciPv
libindidriver.so.1:_ZN4INDI10ControllerC1EPNS_13DefaultDeviceE
libindidriver.so.1:_ZN4INDI10ControllerC2EPNS_13DefaultDeviceE
libindidriver.so.1:_ZN4INDI10ControllerD0Ev
libindidriver.so.1:_ZN4INDI10ControllerD1Ev
libindidriver.so.1:_ZN4INDI10ControllerD2Ev
libindidriver.so.1:_ZN4INDI10RawEncoder13getDeviceNameEv
libindidriver.so.1:_ZN4INDI10RawEncoder6uploadEP5IBLOBPKhjb
libindidriver.so.1:_ZN4INDI10RawEncoderC1Ev
libindidriver.so.1:_ZN4INDI10RawEncoderC2Ev
libindidriver.so.1:_ZN4INDI10RawEncoderD0Ev
libindidriver.so.1:_ZN4INDI10RawEncoderD1Ev
libindidriver.so.1:_ZN4INDI10RawEncoderD2Ev
libindidriver.so.1:_ZN4INDI11FilterWheel11ISNewNumberEPKcS2_PdPPci
libindidriver.so.1:_ZN4INDI11FilterWheel11ISNewSwitchEPKcS2_P7ISStatePPci
libindidriver.so.1:_ZN4INDI11FilterWheel11QueryFilterEv
libindidriver.so.1:_ZN4INDI11FilterWheel12SelectFilterEi
libindidriver.so.1:_ZN4INDI11FilterWheel12buttonHelperEPKc7ISStatePv
libindidriver.so.1:_ZN4INDI11FilterWheel13ISSnoopDeviceEP8_xml_ele
libindidriver.so.1:_ZN4INDI11FilterWheel13callHandshakeEv
libindidriver.so.1:_ZN4INDI11FilterWheel13processButtonEPKc7ISState
libindidriver.so.1:_ZN4INDI11FilterWheel14initPropertiesEv
libindidriver.so.1:_ZN4INDI11FilterWheel14joystickHelperEPKcddPv
libindidriver.so.1:_ZN4INDI11FilterWheel15ISGetPropertiesEPKc
libindidriver.so.1:_ZN4INDI11FilterWheel15processJoystickEPKcdd
libindidriver.so.1:_ZN4INDI11FilterWheel15saveConfigItemsEP8_IO_FILE
libindidriver.so.1:_ZN4INDI11FilterWheel16updatePropertiesEv
libindidriver.so.1:_ZN4INDI11FilterWheel19setFilterConnectionERKh
libindidriver.so.1:_ZN4INDI11FilterWheel9HandshakeEv
libindidriver.so.1:_ZN4INDI11FilterWheel9ISNewTextEPKcS2_PPcS4_i
libindidriver.so.1:_ZN4INDI11FilterWheelC1Ev
libindidriver.so.1:_ZN4INDI11FilterWheelC2Ev
libindidriver.so.1:_ZN4INDI12MJPEGEncoder13getDeviceNameEv
libindidriver.so.1:_ZN4INDI12MJPEGEncoder20jpeg_compress_8u_rgbEPKhttiPhPii
libindidriver.so.1:_ZN4INDI12MJPEGEncoder21jpeg_compress_8u_grayEPKhttiPhPii
libindidriver.so.1:_ZN4INDI12MJPEGEncoder6uploadEP5IBLOBPKhjb
libindidriver.so.1:_ZN4INDI12MJPEGEncoderC1Ev
libindidriver.so.1:_ZN4INDI12MJPEGEncoderC2Ev
libindidriver.so.1:_ZN4INDI12MJPEGEncoderD0Ev
libindidriver.so.1:_ZN4INDI12MJPEGEncoderD1Ev
libindidriver.so.1:_ZN4INDI12MJPEGEncoderD2Ev
libindidriver.so.1:_ZN4INDI12SER_Recorder10writeFrameEPKhj
libindidriver.so.1:_ZN4INDI12SER_Recorder12is_leap_yearEj
libindidriver.so.1:_ZN4INDI12SER_Recorder12write_headerEP10ser_header
libindidriver.so.1:_ZN4INDI12SER_Recorder12write_int_leEPj
libindidriver.so.1:_ZN4INDI12SER_Recorder13dateTo64BitTSEiiiiiiiPm
libindidriver.so.1:_ZN4INDI12SER_Recorder14setPixelFormatE17INDI_PIXEL_FORMATh
libindidriver.so.1:_ZN4INDI12SER_Recorder15getUTCTimeStampEv
libindidriver.so.1:_ZN4INDI12SER_Recorder16is_little_endianEv
libindidriver.so.1:_ZN4INDI12SER_Recorder17getLocalTimeStampEv
libindidriver.so.1:_ZN4INDI12SER_Recorder17write_long_int_leEPm
libindidriver.so.1:_ZN4INDI12SER_Recorder4openEPKcPc
libindidriver.so.1:_ZN4INDI12SER_Recorder5closeEv
libindidriver.so.1:_ZN4INDI12SER_Recorder7setSizeEtt
libindidriver.so.1:_ZN4INDI12SER_RecorderC1Ev
libindidriver.so.1:_ZN4INDI12SER_RecorderC2Ev
libindidriver.so.1:_ZN4INDI12SER_RecorderD0Ev
libindidriver.so.1:_ZN4INDI12SER_RecorderD1Ev
libindidriver.so.1:_ZN4INDI12SER_RecorderD2Ev
libindidriver.so.1:_ZN4INDI13DefaultDevice10DisconnectEv
libindidriver.so.1:_ZN4INDI13DefaultDevice10defineBLOBEP20_IBLOBVectorProperty
libindidriver.so.1:_ZN4INDI13DefaultDevice10defineTextEP20_ITextVectorProperty
libindidriver.so.1:_ZN4INDI13DefaultDevice10loadConfigEbPKc
libindidriver.so.1:_ZN4INDI13DefaultDevice10saveConfigEbPKc
libindidriver.so.1:_ZN4INDI13DefaultDevice11ISNewNumberEPKcS2_PdPPci
libindidriver.so.1:_ZN4INDI13DefaultDevice11ISNewSwitchEPKcS2_P7ISStatePPci
libindidriver.so.1:_ZN4INDI13DefaultDevice11RemoveTimerEi
libindidriver.so.1:_ZN4INDI13DefaultDevice11defineLightEP21_ILightVectorProperty
libindidriver.so.1:_ZN4INDI13DefaultDevice12defineNumberEP22_INumberVectorProperty
libindidriver.so.1:_ZN4INDI13DefaultDevice12defineSwitchEP22_ISwitchVectorProperty
libindidriver.so.1:_ZN4INDI13DefaultDevice12isSimulationEv
libindidriver.so.1:_ZN4INDI13DefaultDevice12setConnectedEb7IPStatePKc
libindidriver.so.1:_ZN4INDI13DefaultDevice13ISSnoopDeviceEP8_xml_ele
libindidriver.so.1:_ZN4INDI13DefaultDevice13setSimulationEb
libindidriver.so.1:_ZN4INDI13DefaultDevice14addAuxControlsEv
libindidriver.so.1:_ZN4INDI13DefaultDevice14debugTriggeredEb
libindidriver.so.1:_ZN4INDI13DefaultDevice14deletePropertyEPKc
libindidriver.so.1:_ZN4INDI13DefaultDevice14initPropertiesEv
libindidriver.so.1:_ZN4INDI13DefaultDevice15ISGetPropertiesEPKc
libindidriver.so.1:_ZN4INDI13DefaultDevice15addDebugControlEv
libindidriver.so.1:_ZN4INDI13DefaultDevice15resetPropertiesEv
libindidriver.so.1:_ZN4INDI13DefaultDevice15saveConfigItemsEP8_IO_FILE
libindidriver.so.1:_ZN4INDI13DefaultDevice16updatePropertiesEv
libindidriver.so.1:_ZN4INDI13DefaultDevice17loadDefaultConfigEv
libindidriver.so.1:_ZN4INDI13DefaultDevice18getDriverInterfaceEv
libindidriver.so.1:_ZN4INDI13DefaultDevice18registerConnectionEPN10Connection9InterfaceE
libindidriver.so.1:_ZN4INDI13DefaultDevice18saveAllConfigItemsEP8_IO_FILE
libindidriver.so.1:_ZN4INDI13DefaultDevice18setDriverInterfaceEt
libindidriver.so.1:_ZN4INDI13DefaultDevice19simulationTriggeredEb
libindidriver.so.1:_ZN4INDI13DefaultDevice20addPollPeriodControlEv
libindidriver.so.1:_ZN4INDI13DefaultDevice20addSimulationControlEv
libindidriver.so.1:_ZN4INDI13DefaultDevice20unRegisterConnectionEPN10Connection9InterfaceE
libindidriver.so.1:_ZN4INDI13DefaultDevice23addConfigurationControlEv
libindidriver.so.1:_ZN4INDI13DefaultDevice23setDefaultPollingPeriodEj
libindidriver.so.1:_ZN4INDI13DefaultDevice7ConnectEv
libindidriver.so.1:_ZN4INDI13DefaultDevice7isDebugEv
libindidriver.so.1:_ZN4INDI13DefaultDevice8SetTimerEj
libindidriver.so.1:_ZN4INDI13DefaultDevice8TimerHitEv
libindidriver.so.1:_ZN4INDI13DefaultDevice8setDebugEb
libindidriver.so.1:_ZN4INDI13DefaultDevice9ISNewBLOBEPKcS2_PiS3_PPcS5_S5_i
libindidriver.so.1:_ZN4INDI13DefaultDevice9ISNewTextEPKcS2_PPcS4_i
libindidriver.so.1:_ZN4INDI13DefaultDeviceC1Ev
libindidriver.so.1:_ZN4INDI13DefaultDeviceC2Ev
libindidriver.so.1:_ZN4INDI13DefaultDeviceD0Ev
libindidriver.so.1:_ZN4INDI13DefaultDeviceD1Ev
libindidriver.so.1:_ZN4INDI13DefaultDeviceD2Ev
libindidriver.so.1:_ZN4INDI13StreamManager11ISNewNumberEPKcS2_PdPPci
libindidriver.so.1:_ZN4INDI13StreamManager11ISNewSwitchEPKcS2_P7ISStatePPci
libindidriver.so.1:_ZN4INDI13StreamManager12recordStreamEPKhjd
libindidriver.so.1:_ZN4INDI13StreamManager12uploadStreamEPKhj
libindidriver.so.1:_ZN4INDI13StreamManager13getDeviceNameEv
libindidriver.so.1:_ZN4INDI13StreamManager13stopRecordingEb
libindidriver.so.1:_ZN4INDI13StreamManager14getStreamFrameEPtS1_S1_S1_
libindidriver.so.1:_ZN4INDI13StreamManager14initPropertiesEv
libindidriver.so.1:_ZN4INDI13StreamManager14setPixelFormatE17INDI_PIXEL_FORMATh
libindidriver.so.1:_ZN4INDI13StreamManager14startRecordingEv
libindidriver.so.1:_ZN4INDI13StreamManager15ISGetPropertiesEPKc
libindidriver.so.1:_ZN4INDI13StreamManager15saveConfigItemsEP8_IO_FILE
libindidriver.so.1:_ZN4INDI13StreamManager16updatePropertiesEv
libindidriver.so.1:_ZN4INDI13StreamManager5closeEv
libindidriver.so.1:_ZN4INDI13StreamManager6expandENSt7__cxx1112basic_stringIcSt11char_traitsIcESaIcEEERKSt3mapIS6_S6_St4lessIS6_ESaISt4pairIKS6_S6_EEE
libindidriver.so.1:_ZN4INDI13StreamManager6mkpathENSt7__cxx1112basic_stringIcSt11char_traitsIcESaIcEEEj
libindidriver.so.1:_ZN4INDI13StreamManager7setSizeEtt
libindidriver.so.1:_ZN4INDI13StreamManager8newFrameEPKhj
libindidriver.so.1:_ZN4INDI13StreamManager9ISNewTextEPKcS2_PPcS4_i
libindidriver.so.1:_ZN4INDI13StreamManager9setStreamEb
libindidriver.so.1:_ZN4INDI13StreamManagerC1EPNS_3CCDE
libindidriver.so.1:_ZN4INDI13StreamManagerC2EPNS_3CCDE
libindidriver.so.1:_ZN4INDI13StreamManagerD0Ev
libindidriver.so.1:_ZN4INDI13StreamManagerD1Ev
libindidriver.so.1:_ZN4INDI13StreamManagerD2Ev
libindidriver.so.1:_ZN4INDI14EncoderManager10getEncoderEv
libindidriver.so.1:_ZN4INDI14EncoderManager10setEncoderEPNS_16EncoderInterfaceE
libindidriver.so.1:_ZN4INDI14EncoderManager14getEncoderListEv
libindidriver.so.1:_ZN4INDI14EncoderManager17getDefaultEncoderEv
libindidriver.so.1:_ZN4INDI14EncoderManagerC1Ev
libindidriver.so.1:_ZN4INDI14EncoderManagerC2Ev
libindidriver.so.1:_ZN4INDI14EncoderManagerD1Ev
libindidriver.so.1:_ZN4INDI14EncoderManagerD2Ev
libindidriver.so.1:_ZN4INDI15FilterInterface11processTextEPKcS2_PPcS4_i
libindidriver.so.1:_ZN4INDI15FilterInterface13processNumberEPKcS2_PdPPci
libindidriver.so.1:_ZN4INDI15FilterInterface14GetFilterNamesEv
libindidriver.so.1:_ZN4INDI15FilterInterface14SetFilterNamesEv
libindidriver.so.1:_ZN4INDI15FilterInterface14initPropertiesEPKc
libindidriver.so.1:_ZN4INDI15FilterInterface15loadFilterNamesEv
libindidriver.so.1:_ZN4INDI15FilterInterface15saveConfigItemsEP8_IO_FILE
libindidriver.so.1:_ZN4INDI15FilterInterface16SelectFilterDoneEi
libindidriver.so.1:_ZN4INDI15FilterInterface16updatePropertiesEv
libindidriver.so.1:_ZN4INDI15FilterInterface21generateSampleFiltersEv
libindidriver.so.1:_ZN4INDI15FilterInterfaceC1EPNS_13DefaultDeviceE
libindidriver.so.1:_ZN4INDI15FilterInterfaceC2EPNS_13DefaultDeviceE
libindidriver.so.1:_ZN4INDI15FilterInterfaceD1Ev
libindidriver.so.1:_ZN4INDI15FilterInterfaceD2Ev
libindidriver.so.1:_ZN4INDI15GuiderInterface13GuideCompleteE12INDI_EQ_AXIS
libindidriver.so.1:_ZN4INDI15GuiderInterface20initGuiderPropertiesEPKcS2_
libindidriver.so.1:_ZN4INDI15GuiderInterface23processGuiderPropertiesEPKcPdPPci
libindidriver.so.1:_ZN4INDI15GuiderInterfaceC1Ev
libindidriver.so.1:_ZN4INDI15GuiderInterfaceC2Ev
libindidriver.so.1:_ZN4INDI15GuiderInterfaceD1Ev
libindidriver.so.1:_ZN4INDI15GuiderInterfaceD2Ev
libindidriver.so.1:_ZN4INDI15RecorderManager11getRecorderEv
libindidriver.so.1:_ZN4INDI15RecorderManager11setRecorderEPNS_17RecorderInterfaceE
libindidriver.so.1:_ZN4INDI15RecorderManager15getRecorderListEv
libindidriver.so.1:_ZN4INDI15RecorderManager18getDefaultRecorderEv
libindidriver.so.1:_ZN4INDI15RecorderManagerC1Ev
libindidriver.so.1:_ZN4INDI15RecorderManagerC2Ev
libindidriver.so.1:_ZN4INDI15RecorderManagerD1Ev
libindidriver.so.1:_ZN4INDI15RecorderManagerD2Ev
libindidriver.so.1:_ZN4INDI16DustCapInterface20processDustCapSwitchEPKcS2_P7ISStatePPci
libindidriver.so.1:_ZN4INDI16DustCapInterface21initDustCapPropertiesEPKcS2_
libindidriver.so.1:_ZN4INDI16DustCapInterface7ParkCapEv
libindidriver.so.1:_ZN4INDI16DustCapInterface9UnParkCapEv
libindidriver.so.1:_ZN4INDI16EncoderInterface14setPixelFormatE17INDI_PIXEL_FORMATh
libindidriver.so.1:_ZN4INDI16EncoderInterface4initEPNS_3CCDE
libindidriver.so.1:_ZN4INDI16EncoderInterface7getNameEv
libindidriver.so.1:_ZN4INDI16EncoderInterface7setSizeEtt
libindidriver.so.1:_ZN4INDI16FocuserInterface11MoveFocuserENS0_14FocusDirectionEit
libindidriver.so.1:_ZN4INDI16FocuserInterface12AbortFocuserEv
libindidriver.so.1:_ZN4INDI16FocuserInterface13processNumberEPKcS2_PdPPci
libindidriver.so.1:_ZN4INDI16FocuserInterface13processSwitchEPKcS2_P7ISStatePPci
libindidriver.so.1:_ZN4INDI16FocuserInterface14MoveAbsFocuserEj
libindidriver.so.1:_ZN4INDI16FocuserInterface14MoveRelFocuserENS0_14FocusDirectionEj
libindidriver.so.1:_ZN4INDI16FocuserInterface14initPropertiesEPKc
libindidriver.so.1:_ZN4INDI16FocuserInterface15SetFocuserSpeedEi
libindidriver.so.1:_ZN4INDI16FocuserInterface16updatePropertiesEv
libindidriver.so.1:_ZN4INDI16FocuserInterfaceC1EPNS_13DefaultDeviceE
libindidriver.so.1:_ZN4INDI16FocuserInterfaceC2EPNS_13DefaultDeviceE
libindidriver.so.1:_ZN4INDI16RotatorInterface11HomeRotatorEv
libindidriver.so.1:_ZN4INDI16RotatorInterface11SyncRotatorEd
libindidriver.so.1:_ZN4INDI16RotatorInterface12AbortRotatorEv
libindidriver.so.1:_ZN4INDI16RotatorInterface13processNumberEPKcS2_PdPPci
libindidriver.so.1:_ZN4INDI16RotatorInterface13processSwitchEPKcS2_P7ISStatePPci
libindidriver.so.1:_ZN4INDI16RotatorInterface14ReverseRotatorEb
libindidriver.so.1:_ZN4INDI16RotatorInterface14initPropertiesEPKc
libindidriver.so.1:_ZN4INDI16RotatorInterface16updatePropertiesEv
libindidriver.so.1:_ZN4INDI16RotatorInterfaceC1EPNS_13DefaultDeviceE
libindidriver.so.1:_ZN4INDI16RotatorInterfaceC2EPNS_13DefaultDeviceE
libindidriver.so.1:_ZN4INDI17LightBoxInterface13snoopLightBoxEP8_xml_ele
libindidriver.so.1:_ZN4INDI17LightBoxInterface14EnableLightBoxEb
libindidriver.so.1:_ZN4INDI17LightBoxInterface17addFilterDurationEPKct
libindidriver.so.1:_ZN4INDI17LightBoxInterface19processLightBoxTextEPKcS2_PPcS4_i
libindidriver.so.1:_ZN4INDI17LightBoxInterface21SetLightBoxBrightnessEt
libindidriver.so.1:_ZN4INDI17LightBoxInterface21processLightBoxNumberEPKcS2_PdPPci
libindidriver.so.1:_ZN4INDI17LightBoxInterface21processLightBoxSwitchEPKcS2_P7ISStatePPci
libindidriver.so.1:_ZN4INDI17LightBoxInterface22initLightBoxPropertiesEPKcS2_
libindidriver.so.1:_ZN4INDI17LightBoxInterface23isGetLightBoxPropertiesEPKc
libindidriver.so.1:_ZN4INDI17LightBoxInterface23saveLightBoxConfigItemsEP8_IO_FILE
libindidriver.so.1:_ZN4INDI17LightBoxInterface24updateLightBoxPropertiesEv
libindidriver.so.1:_ZN4INDI17LightBoxInterfaceC1EPNS_13DefaultDeviceEb
libindidriver.so.1:_ZN4INDI17LightBoxInterfaceC2EPNS_13DefaultDeviceEb
libindidriver.so.1:_ZN4INDI17LightBoxInterfaceD0Ev
libindidriver.so.1:_ZN4INDI17LightBoxInterfaceD1Ev
libindidriver.so.1:_ZN4INDI17LightBoxInterfaceD2Ev
libindidriver.so.1:_ZN4INDI17RecorderInterface7getNameEv
libindidriver.so.1:_ZN4INDI20regex_replace_compatERKNSt7__cxx1112basic_stringIcSt11char_traitsIcESaIcEEES7_S7_
libindidriver.so.1:_ZN4INDI21regex_replace_compat2ERKNSt7__cxx1112basic_stringIcSt11char_traitsIcESaIcEEES7_S7_
libindidriver.so.1:_ZN4INDI3CCD10GuideNorthEj
libindidriver.so.1:_ZN4INDI3CCD10GuideSouthEj
libindidriver.so.1:_ZN4INDI3CCD10uploadFileEPNS_7CCDChipEPKvmbb
libindidriver.so.1:_ZN4INDI3CCD11ISNewNumberEPKcS2_PdPPci
libindidriver.so.1:_ZN4INDI3CCD11ISNewSwitchEPKcS2_P7ISStatePPci
libindidriver.so.1:_ZN4INDI3CCD12SetCCDParamsEiiiff
libindidriver.so.1:_ZN4INDI3CCD12UpdateCCDBinEii
libindidriver.so.1:_ZN4INDI3CCD12getFileIndexEPKcS2_S2_
libindidriver.so.1:_ZN4INDI3CCD13AbortExposureEv
libindidriver.so.1:_ZN4INDI3CCD13GuideCompleteE12INDI_EQ_AXIS
libindidriver.so.1:_ZN4INDI3CCD13ISSnoopDeviceEP8_xml_ele
libindidriver.so.1:_ZN4INDI3CCD13StartExposureEf
libindidriver.so.1:_ZN4INDI3CCD13StopStreamingEv
libindidriver.so.1:_ZN4INDI3CCD14SetTemperatureEd
libindidriver.so.1:_ZN4INDI3CCD14StartStreamingEv
libindidriver.so.1:_ZN4INDI3CCD14UpdateCCDFrameEiiii
libindidriver.so.1:_ZN4INDI3CCD14initPropertiesEv
libindidriver.so.1:_ZN4INDI3CCD15ISGetPropertiesEPKc
libindidriver.so.1:_ZN4INDI3CCD15SetGuiderParamsEiiiff
libindidriver.so.1:_ZN4INDI3CCD15UpdateGuiderBinEii
libindidriver.so.1:_ZN4INDI3CCD15addFITSKeywordsEP8fitsfilePNS_7CCDChipE
libindidriver.so.1:_ZN4INDI3CCD15saveConfigItemsEP8_IO_FILE
libindidriver.so.1:_ZN4INDI3CCD16ExposureCompleteEPNS_7CCDChipE
libindidriver.so.1:_ZN4INDI3CCD16SetCCDCapabilityEj
libindidriver.so.1:_ZN4INDI3CCD16updatePropertiesEv
libindidriver.so.1:_ZN4INDI3CCD17UpdateGuiderFrameEiiii
libindidriver.so.1:_ZN4INDI3CCD17fits_update_key_sEP8fitsfileiNSt7__cxx1112basic_stringIcSt11char_traitsIcESaIcEEEPvS8_Pi
libindidriver.so.1:_ZN4INDI3CCD18AbortGuideExposureEv
libindidriver.so.1:_ZN4INDI3CCD18StartGuideExposureEf
libindidriver.so.1:_ZN4INDI3CCD18UpdateCCDFrameTypeENS_7CCDChip9CCD_FRAMEE
libindidriver.so.1:_ZN4INDI3CCD21UpdateGuiderFrameTypeENS_7CCDChip9CCD_FRAMEE
libindidriver.so.1:_ZN4INDI3CCD9GuideEastEj
libindidriver.so.1:_ZN4INDI3CCD9GuideWestEj
libindidriver.so.1:_ZN4INDI3CCD9ISNewTextEPKcS2_PPcS4_i
libindidriver.so.1:_ZN4INDI3CCD9getMinMaxEPdS1_PNS_7CCDChipE
libindidriver.so.1:_ZN4INDI3CCDC1Ev
libindidriver.so.1:_ZN4INDI3CCDC2Ev
libindidriver.so.1:_ZN4INDI3CCDD0Ev
libindidriver.so.1:_ZN4INDI3CCDD1Ev
libindidriver.so.1:_ZN4INDI3CCDD2Ev
libindidriver.so.1:_ZN4INDI3GPS11ISNewNumberEPKcS2_PdPPci
libindidriver.so.1:_ZN4INDI3GPS11ISNewSwitchEPKcS2_P7ISStatePPci
libindidriver.so.1:_ZN4INDI3GPS14initPropertiesEv
libindidriver.so.1:_ZN4INDI3GPS15saveConfigItemsEP8_IO_FILE
libindidriver.so.1:_ZN4INDI3GPS16updatePropertiesEv
libindidriver.so.1:_ZN4INDI3GPS8TimerHitEv
libindidriver.so.1:_ZN4INDI3GPS9updateGPSEv
libindidriver.so.1:_ZN4INDI4Dome11GetTargetAzERdS1_S1_S1_
libindidriver.so.1:_ZN4INDI4Dome11ISNewNumberEPKcS2_PdPPci
libindidriver.so.1:_ZN4INDI4Dome11ISNewSwitchEPKcS2_P7ISStatePPci
libindidriver.so.1:_ZN4INDI4Dome12CheckHorizonEddd
libindidriver.so.1:_ZN4INDI4Dome12GetAxis1ParkEv
libindidriver.so.1:_ZN4INDI4Dome12IntersectionE7point3DS1_dRdS2_
libindidriver.so.1:_ZN4INDI4Dome12LoadParkDataEv
libindidriver.so.1:_ZN4INDI4Dome12SetAxis1ParkEd
libindidriver.so.1:_ZN4INDI4Dome12buttonHelperEPKc7ISStatePv
libindidriver.so.1:_ZN4INDI4Dome12setDomeStateERKNS0_9DomeStateE
libindidriver.so.1:_ZN4INDI4Dome12triggerSnoopEPKcS2_
libindidriver.so.1:_ZN4INDI4Dome13ISSnoopDeviceEP8_xml_ele
libindidriver.so.1:_ZN4INDI4Dome13OpticalCenterE7point3DdddRS1_
libindidriver.so.1:_ZN4INDI4Dome13OpticalVectorEddR7point3D
libindidriver.so.1:_ZN4INDI4Dome13WriteParkDataEv
libindidriver.so.1:_ZN4INDI4Dome13callHandshakeEv
libindidriver.so.1:_ZN4INDI4Dome13processButtonEPKc7ISState
libindidriver.so.1:_ZN4INDI4Dome14ControlShutterENS0_16ShutterOperationE
libindidriver.so.1:_ZN4INDI4Dome14SetCurrentParkEv
libindidriver.so.1:_ZN4INDI4Dome14SetDefaultParkEv
libindidriver.so.1:_ZN4INDI4Dome14UpdateAutoSyncEv
libindidriver.so.1:_ZN4INDI4Dome14initPropertiesEv
libindidriver.so.1:_ZN4INDI4Dome15ISGetPropertiesEPKc
libindidriver.so.1:_ZN4INDI4Dome15SetParkDataTypeENS0_12DomeParkDataE
libindidriver.so.1:_ZN4INDI4Dome15saveConfigItemsEP8_IO_FILE
libindidriver.so.1:_ZN4INDI4Dome16updatePropertiesEv
libindidriver.so.1:_ZN4INDI4Dome17SetDomeCapabilityEj
libindidriver.so.1:_ZN4INDI4Dome17UpdateMountCoordsEv
libindidriver.so.1:_ZN4INDI4Dome17setDomeConnectionERKh
libindidriver.so.1:_ZN4INDI4Dome19GetAxis1ParkDefaultEv
libindidriver.so.1:_ZN4INDI4Dome19SetAxis1ParkDefaultEd
libindidriver.so.1:_ZN4INDI4Dome22GetShutterStatusStringENS0_13ShutterStatusE
libindidriver.so.1:_ZN4INDI4Dome3CscEd
libindidriver.so.1:_ZN4INDI4Dome3SecEd
libindidriver.so.1:_ZN4INDI4Dome4MoveENS0_13DomeDirectionENS0_17DomeMotionCommandE
libindidriver.so.1:_ZN4INDI4Dome4ParkEv
libindidriver.so.1:_ZN4INDI4Dome5AbortEv
libindidriver.so.1:_ZN4INDI4Dome6UnParkEv
libindidriver.so.1:_ZN4INDI4Dome7MoveAbsEd
libindidriver.so.1:_ZN4INDI4Dome7MoveRelEd
libindidriver.so.1:_ZN4INDI4Dome8InitParkEv
libindidriver.so.1:_ZN4INDI4Dome8SetSpeedEd
libindidriver.so.1:_ZN4INDI4Dome8isLockedEv
libindidriver.so.1:_ZN4INDI4Dome8isParkedEv
libindidriver.so.1:_ZN4INDI4Dome9HandshakeEv
libindidriver.so.1:_ZN4INDI4Dome9ISNewTextEPKcS2_PPcS4_i
libindidriver.so.1:_ZN4INDI4Dome9SetParkedEb
libindidriver.so.1:_ZN4INDI4DomeC1Ev
libindidriver.so.1:_ZN4INDI4DomeC2Ev
libindidriver.so.1:_ZN4INDI4DomeD0Ev
libindidriver.so.1:_ZN4INDI4DomeD1Ev
libindidriver.so.1:_ZN4INDI4DomeD2Ev
libindidriver.so.1:_ZN4INDI6Logger11ISNewSwitchEPKcS2_P7ISStatePPci
libindidriver.so.1:_ZN4INDI6Logger11getInstanceEv
libindidriver.so.1:_ZN4INDI6Logger13addDebugLevelEPKcS2_
libindidriver.so.1:_ZN4INDI6Logger14initPropertiesEPNS_13DefaultDeviceE
libindidriver.so.1:_ZN4INDI6Logger15saveConfigItemsEP8_IO_FILE
libindidriver.so.1:_ZN4INDI6Logger16updatePropertiesEb
libindidriver.so.1:_ZN4INDI6Logger4rankEj
libindidriver.so.1:_ZN4INDI6Logger5printEPKcjRKNSt7__cxx1112basic_stringIcSt11char_traitsIcESaIcEEEiS2_z
libindidriver.so.1:_ZN4INDI6Logger9configureERKNSt7__cxx1112basic_stringIcSt11char_traitsIcESaIcEEENS0_11loggerConf_Eii
libindidriver.so.1:_ZN4INDI6LoggerC1Ev
libindidriver.so.1:_ZN4INDI6LoggerC2Ev
libindidriver.so.1:_ZN4INDI6LoggerD1Ev
libindidriver.so.1:_ZN4INDI6LoggerD2Ev
libindidriver.so.1:_ZN4INDI7CCDChip12setFrameTypeENS0_9CCD_FRAMEE
libindidriver.so.1:_ZN4INDI7CCDChip12setPixelSizeEff
libindidriver.so.1:_ZN4INDI7CCDChip13setInterlacedEb
libindidriver.so.1:_ZN4INDI7CCDChip13setMinMaxStepEPKcS2_dddb
libindidriver.so.1:_ZN4INDI7CCDChip13setResolutionEii
libindidriver.so.1:_ZN4INDI7CCDChip15setExposureLeftEd
libindidriver.so.1:_ZN4INDI7CCDChip16getFrameTypeNameENS0_9CCD_FRAMEE
libindidriver.so.1:_ZN4INDI7CCDChip17setExposureFailedEv
libindidriver.so.1:_ZN4INDI7CCDChip17setImageExtensionEPKc
libindidriver.so.1:_ZN4INDI7CCDChip18setFrameBufferSizeEib
libindidriver.so.1:_ZN4INDI7CCDChip19setExposureDurationEd
libindidriver.so.1:_ZN4INDI7CCDChip20getExposureStartTimeEv
libindidriver.so.1:_ZN4INDI7CCDChip6setBPPEi
libindidriver.so.1:_ZN4INDI7CCDChip6setBinEii
libindidriver.so.1:_ZN4INDI7CCDChip8binFrameEv
libindidriver.so.1:_ZN4INDI7CCDChip8setFrameEiiii
libindidriver.so.1:_ZN4INDI7CCDChip8setNAxisEi
libindidriver.so.1:_ZN4INDI7CCDChipC1Ev
libindidriver.so.1:_ZN4INDI7CCDChipC2Ev
libindidriver.so.1:_ZN4INDI7CCDChipD1Ev
libindidriver.so.1:_ZN4INDI7CCDChipD2Ev
libindidriver.so.1:_ZN4INDI7Focuser11ISNewNumberEPKcS2_PdPPci
libindidriver.so.1:_ZN4INDI7Focuser11ISNewSwitchEPKcS2_P7ISStatePPci
libindidriver.so.1:_ZN4INDI7Focuser12buttonHelperEPKc7ISStatePv
libindidriver.so.1:_ZN4INDI7Focuser13ISSnoopDeviceEP8_xml_ele
libindidriver.so.1:_ZN4INDI7Focuser13callHandshakeEv
libindidriver.so.1:_ZN4INDI7Focuser13processButtonEPKc7ISState
libindidriver.so.1:_ZN4INDI7Focuser14initPropertiesEv
libindidriver.so.1:_ZN4INDI7Focuser15ISGetPropertiesEPKc
libindidriver.so.1:_ZN4INDI7Focuser15saveConfigItemsEP8_IO_FILE
libindidriver.so.1:_ZN4INDI7Focuser16updatePropertiesEv
libindidriver.so.1:_ZN4INDI7Focuser23setSupportedConnectionsERKh
libindidriver.so.1:_ZN4INDI7Focuser9HandshakeEv
libindidriver.so.1:_ZN4INDI7Focuser9ISNewTextEPKcS2_PPcS4_i
libindidriver.so.1:_ZN4INDI7FocuserC1Ev
libindidriver.so.1:_ZN4INDI7FocuserC2Ev
libindidriver.so.1:_ZN4INDI7FocuserD0Ev
libindidriver.so.1:_ZN4INDI7FocuserD1Ev
libindidriver.so.1:_ZN4INDI7FocuserD2Ev
libindidriver.so.1:_ZN4INDI7Rotator11ISNewNumberEPKcS2_PdPPci
libindidriver.so.1:_ZN4INDI7Rotator11ISNewSwitchEPKcS2_P7ISStatePPci
libindidriver.so.1:_ZN4INDI7Rotator13callHandshakeEv
libindidriver.so.1:_ZN4INDI7Rotator14initPropertiesEv
libindidriver.so.1:_ZN4INDI7Rotator15ISGetPropertiesEPKc
libindidriver.so.1:_ZN4INDI7Rotator15saveConfigItemsEP8_IO_FILE
libindidriver.so.1:_ZN4INDI7Rotator16updatePropertiesEv
libindidriver.so.1:_ZN4INDI7Rotator20setRotatorConnectionERKh
libindidriver.so.1:_ZN4INDI7Rotator9HandshakeEv
libindidriver.so.1:_ZN4INDI7RotatorC1Ev
libindidriver.so.1:_ZN4INDI7RotatorC2Ev
libindidriver.so.1:_ZN4INDI7RotatorD0Ev
libindidriver.so.1:_ZN4INDI7RotatorD1Ev
libindidriver.so.1:_ZN4INDI7RotatorD2Ev
libindidriver.so.1:_ZN4INDI7Weather11ISNewNumberEPKcS2_PdPPci
libindidriver.so.1:_ZN4INDI7Weather11ISNewSwitchEPKcS2_P7ISStatePPci
libindidriver.so.1:_ZN4INDI7Weather12addParameterENSt7__cxx1112basic_stringIcSt11char_traitsIcESaIcEEES6_ddd
libindidriver.so.1:_ZN4INDI7Weather13ISSnoopDeviceEP8_xml_ele
libindidriver.so.1:_ZN4INDI7Weather13callHandshakeEv
libindidriver.so.1:_ZN4INDI7Weather13updateWeatherEv
libindidriver.so.1:_ZN4INDI7Weather14initPropertiesEv
libindidriver.so.1:_ZN4INDI7Weather14updateLocationEddd
libindidriver.so.1:_ZN4INDI7Weather15saveConfigItemsEP8_IO_FILE
libindidriver.so.1:_ZN4INDI7Weather16updatePropertiesEv
libindidriver.so.1:_ZN4INDI7Weather17setParameterValueENSt7__cxx1112basic_stringIcSt11char_traitsIcESaIcEEEd
libindidriver.so.1:_ZN4INDI7Weather18updateWeatherStateEv
libindidriver.so.1:_ZN4INDI7Weather19processLocationInfoEddd
libindidriver.so.1:_ZN4INDI7Weather20createParameterRangeENSt7__cxx1112basic_stringIcSt11char_traitsIcESaIcEEES6_
libindidriver.so.1:_ZN4INDI7Weather20setCriticalParameterENSt7__cxx1112basic_stringIcSt11char_traitsIcESaIcEEE
libindidriver.so.1:_ZN4INDI7Weather20setWeatherConnectionERKh
libindidriver.so.1:_ZN4INDI7Weather8TimerHitEv
libindidriver.so.1:_ZN4INDI7Weather9HandshakeEv
libindidriver.so.1:_ZN4INDI7Weather9ISNewTextEPKcS2_PPcS4_i
libindidriver.so.1:_ZN4INDI7WeatherC1Ev
libindidriver.so.1:_ZN4INDI7WeatherC2Ev
libindidriver.so.1:_ZN4INDI7WeatherD0Ev
libindidriver.so.1:_ZN4INDI7WeatherD1Ev
libindidriver.so.1:_ZN4INDI7WeatherD2Ev
libindidriver.so.1:_ZN4INDI8Detector10uploadFileEP14DetectorDevicePKvmbbi
libindidriver.so.1:_ZN4INDI8Detector11ISNewNumberEPKcS2_PdPPci
libindidriver.so.1:_ZN4INDI8Detector11ISNewSwitchEPKcS2_P7ISStatePPci
libindidriver.so.1:_ZN4INDI8Detector12AbortCaptureEv
libindidriver.so.1:_ZN4INDI8Detector12StartCaptureEf
libindidriver.so.1:_ZN4INDI8Detector12getFileIndexEPKcS2_S2_
libindidriver.so.1:_ZN4INDI8Detector13ISSnoopDeviceEP8_xml_ele
libindidriver.so.1:_ZN4INDI8Detector14SetTemperatureEd
libindidriver.so.1:_ZN4INDI8Detector14initPropertiesEv
libindidriver.so.1:_ZN4INDI8Detector15CaptureCompleteEP14DetectorDevice
libindidriver.so.1:_ZN4INDI8Detector15ISGetPropertiesEPKc
libindidriver.so.1:_ZN4INDI8Detector15addFITSKeywordsEP8fitsfileP14DetectorDevicei
libindidriver.so.1:_ZN4INDI8Detector15saveConfigItemsEP8_IO_FILE
libindidriver.so.1:_ZN4INDI8Detector16updatePropertiesEv
libindidriver.so.1:_ZN4INDI8Detector17SetDetectorParamsEfff
libindidriver.so.1:_ZN4INDI8Detector17fits_update_key_sEP8fitsfileiNSt7__cxx1112basic_stringIcSt11char_traitsIcESaIcEEEPvS8_Pi
libindidriver.so.1:_ZN4INDI8Detector20CaptureParamsUpdatedEfff
libindidriver.so.1:_ZN4INDI8Detector21SetDetectorCapabilityEj
libindidriver.so.1:_ZN4INDI8Detector9ISNewTextEPKcS2_PPcS4_i
libindidriver.so.1:_ZN4INDI8Detector9getMinMaxEPdS1_Phii
libindidriver.so.1:_ZN4INDI8DetectorC1Ev
libindidriver.so.1:_ZN4INDI8DetectorC2Ev
libindidriver.so.1:_ZN4INDI8DetectorD0Ev
libindidriver.so.1:_ZN4INDI8DetectorD1Ev
libindidriver.so.1:_ZN4INDI8DetectorD2Ev
libindidriver.so.1:_ZN4INDI8Property10setDynamicEb
libindidriver.so.1:_ZN4INDI8Property11setPropertyEPv
libindidriver.so.1:_ZN4INDI8Property13setBaseDeviceEPNS_10BaseDeviceE
libindidriver.so.1:_ZN4INDI8Property13setRegisteredEb
libindidriver.so.1:_ZN4INDI8Property7getBLOBEv
libindidriver.so.1:_ZN4INDI8Property7getTextEv
libindidriver.so.1:_ZN4INDI8Property7setTypeE18INDI_PROPERTY_TYPE
libindidriver.so.1:_ZN4INDI8Property8getLightEv
libindidriver.so.1:_ZN4INDI8Property9getNumberEv
libindidriver.so.1:_ZN4INDI8Property9getSwitchEv
libindidriver.so.1:_ZN4INDI8PropertyC1Ev
libindidriver.so.1:_ZN4INDI8PropertyC2Ev
libindidriver.so.1:_ZN4INDI8PropertyD1Ev
libindidriver.so.1:_ZN4INDI8PropertyD2Ev
libindidriver.so.1:_ZN4INDI9Telescope10updateTimeEP7ln_dated
libindidriver.so.1:_ZN4INDI9Telescope11ISNewNumberEPKcS2_PdPPci
libindidriver.so.1:_ZN4INDI9Telescope11ISNewSwitchEPKcS2_P7ISStatePPci
libindidriver.so.1:_ZN4INDI9Telescope11SetSlewRateEi
libindidriver.so.1:_ZN4INDI9Telescope11processNSWEEdd
libindidriver.so.1:_ZN4INDI9Telescope11setPECStateENS0_17TelescopePECStateE
libindidriver.so.1:_ZN4INDI9Telescope11setPierSideENS0_17TelescopePierSideE
libindidriver.so.1:_ZN4INDI9Telescope12AddTrackModeEPKcS2_b
libindidriver.so.1:_ZN4INDI9Telescope12LoadParkDataEv
libindidriver.so.1:_ZN4INDI9Telescope12SetAxis1ParkEd
libindidriver.so.1:_ZN4INDI9Telescope12SetAxis2ParkEd
libindidriver.so.1:_ZN4INDI9Telescope12SetTrackModeEh
libindidriver.so.1:_ZN4INDI9Telescope12SetTrackRateEdd
libindidriver.so.1:_ZN4INDI9Telescope12buttonHelperEPKc7ISStatePv
libindidriver.so.1:_ZN4INDI9Telescope12triggerSnoopEPKcS2_
libindidriver.so.1:_ZN4INDI9Telescope13ISSnoopDeviceEP8_xml_ele
libindidriver.so.1:_ZN4INDI9Telescope13WriteParkDataEv
libindidriver.so.1:_ZN4INDI9Telescope13callHandshakeEv
libindidriver.so.1:_ZN4INDI9Telescope13processButtonEPKc7ISState
libindidriver.so.1:_ZN4INDI9Telescope14SetCurrentParkEv
libindidriver.so.1:_ZN4INDI9Telescope14SetDefaultParkEv
libindidriver.so.1:_ZN4INDI9Telescope14initPropertiesEv
libindidriver.so.1:_ZN4INDI9Telescope14joystickHelperEPKcddPv
libindidriver.so.1:_ZN4INDI9Telescope14updateLocationEddd
libindidriver.so.1:_ZN4INDI9Telescope15ISGetPropertiesEPKc
libindidriver.so.1:_ZN4INDI9Telescope15LoadScopeConfigEv
libindidriver.so.1:_ZN4INDI9Telescope15SetParkDataTypeENS0_17TelescopeParkDataE
libindidriver.so.1:_ZN4INDI9Telescope15SetParkPositionEdd
libindidriver.so.1:_ZN4INDI9Telescope15SetTrackEnabledEb
libindidriver.so.1:_ZN4INDI9Telescope15processJoystickEPKcdd
libindidriver.so.1:_ZN4INDI9Telescope15processTimeInfoEPKcS2_
libindidriver.so.1:_ZN4INDI9Telescope15saveConfigItemsEP8_IO_FILE
libindidriver.so.1:_ZN4INDI9Telescope16updatePropertiesEv
libindidriver.so.1:_ZN4INDI9Telescope17UpdateScopeConfigEv
libindidriver.so.1:_ZN4INDI9Telescope18processSlewPresetsEdd
libindidriver.so.1:_ZN4INDI9Telescope18sendTimeFromSystemEv
libindidriver.so.1:_ZN4INDI9Telescope19SetAxis1ParkDefaultEd
libindidriver.so.1:_ZN4INDI9Telescope19SetAxis2ParkDefaultEd
libindidriver.so.1:_ZN4INDI9Telescope19processLocationInfoEddd
libindidriver.so.1:_ZN4INDI9Telescope21HasDefaultScopeConfigEv
libindidriver.so.1:_ZN4INDI9Telescope22SetTelescopeCapabilityEjh
libindidriver.so.1:_ZN4INDI9Telescope22setTelescopeConnectionERKh
libindidriver.so.1:_ZN4INDI9Telescope4GotoEdd
libindidriver.so.1:_ZN4INDI9Telescope4ParkEv
libindidriver.so.1:_ZN4INDI9Telescope4SyncEdd
libindidriver.so.1:_ZN4INDI9Telescope5AbortEv
libindidriver.so.1:_ZN4INDI9Telescope6MoveNSE11INDI_DIR_NSNS0_22TelescopeMotionCommandE
libindidriver.so.1:_ZN4INDI9Telescope6MoveWEE11INDI_DIR_WENS0_22TelescopeMotionCommandE
libindidriver.so.1:_ZN4INDI9Telescope6UnParkEv
libindidriver.so.1:_ZN4INDI9Telescope8InitParkEv
libindidriver.so.1:_ZN4INDI9Telescope8NewRaDecEdd
libindidriver.so.1:_ZN4INDI9Telescope8TimerHitEv
libindidriver.so.1:_ZN4INDI9Telescope8isParkedEv
libindidriver.so.1:_ZN4INDI9Telescope9HandshakeEv
libindidriver.so.1:_ZN4INDI9Telescope9ISNewTextEPKcS2_PPcS4_i
libindidriver.so.1:_ZN4INDI9Telescope9SetParkedEb
libindidriver.so.1:_ZN4INDI9TelescopeC1Ev
libindidriver.so.1:_ZN4INDI9TelescopeC2Ev
libindidriver.so.1:_ZN4INDI9TelescopeD0Ev
libindidriver.so.1:_ZN4INDI9TelescopeD1Ev
libindidriver.so.1:_ZN4INDI9TelescopeD2Ev
libindidriver.so.1:_ZN4INDI9USBDevice10FindDeviceEiii
libindidriver.so.1:_ZN4INDI9USBDevice13FindEndpointsEv
libindidriver.so.1:_ZN4INDI9USBDevice13ReadInterruptEPhii
libindidriver.so.1:_ZN4INDI9USBDevice14ControlMessageEhhjjPhh
libindidriver.so.1:_ZN4INDI9USBDevice14WriteInterruptEPhii
libindidriver.so.1:_ZN4INDI9USBDevice4OpenEv
libindidriver.so.1:_ZN4INDI9USBDevice5CloseEv
libindidriver.so.1:_ZN4INDI9USBDevice8ReadBulkEPhii
libindidriver.so.1:_ZN4INDI9USBDevice9WriteBulkEPhii
libindidriver.so.1:_ZN4INDI9USBDeviceC1Ev
libindidriver.so.1:_ZN4INDI9USBDeviceC2Ev
libindidriver.so.1:_ZN4INDI9USBDeviceD0Ev
libindidriver.so.1:_ZN4INDI9USBDeviceD1Ev
libindidriver.so.1:_ZN4INDI9USBDeviceD2Ev
libindidriver.so.1:_ZN4INDI9V4L2_Base10connectCamEPKcPciii
libindidriver.so.1:_ZN4INDI9V4L2_Base10errno_exitEPKcPc
libindidriver.so.1:_ZN4INDI9V4L2_Base10findMinMaxEv
libindidriver.so.1:_ZN4INDI9V4L2_Base10getControlEjPdPc
libindidriver.so.1:_ZN4INDI9V4L2_Base10getLinearYEv
libindidriver.so.1:_ZN4INDI9V4L2_Base10init_userpEj
libindidriver.so.1:_ZN4INDI9V4L2_Base10query_ctrlEjRdS1_S1_S1_Pc
libindidriver.so.1:_ZN4INDI9V4L2_Base10read_frameEPc
libindidriver.so.1:_ZN4INDI9V4L2_Base11getcroprectEv
libindidriver.so.1:_ZN4INDI9V4L2_Base11init_deviceEPc
libindidriver.so.1:_ZN4INDI9V4L2_Base11open_deviceEPKcPc
libindidriver.so.1:_ZN4INDI9V4L2_Base11setcroprectEiiiiPc
libindidriver.so.1:_ZN4INDI9V4L2_Base12check_deviceEPc
libindidriver.so.1:_ZN4INDI9V4L2_Base12close_deviceEv
libindidriver.so.1:_ZN4INDI9V4L2_Base12getRGBBufferEv
libindidriver.so.1:_ZN4INDI9V4L2_Base13disconnectCamEb
libindidriver.so.1:_ZN4INDI9V4L2_Base13getDeviceNameEv
libindidriver.so.1:_ZN4INDI9V4L2_Base13getMaxMinSizeERiS1_S1_S1_
libindidriver.so.1:_ZN4INDI9V4L2_Base13getframeratesEP22_ISwitchVectorPropertyP22_INumberVectorProperty
libindidriver.so.1:_ZN4INDI9V4L2_Base13queryControlsEP22_INumberVectorPropertyPjPP22_ISwitchVectorPropertyS3_PKcS8_
libindidriver.so.1:_ZN4INDI9V4L2_Base13setDeviceNameEPKc
libindidriver.so.1:_ZN4INDI9V4L2_Base13setINTControlEjdPc
libindidriver.so.1:_ZN4INDI9V4L2_Base13setOPTControlEjjPc
libindidriver.so.1:_ZN4INDI9V4L2_Base13uninit_deviceEPc
libindidriver.so.1:_ZN4INDI9V4L2_Base14enumerate_ctrlEv
libindidriver.so.1:_ZN4INDI9V4L2_Base14enumerate_menuEv
libindidriver.so.1:_ZN4INDI9V4L2_Base14isLXmodCapableEv
libindidriver.so.1:_ZN4INDI9V4L2_Base14setcapturesizeEjjPc
libindidriver.so.1:_ZN4INDI9V4L2_Base14stop_capturingEPc
libindidriver.so.1:_ZN4INDI9V4L2_Base15getcapturesizesEP22_ISwitchVectorPropertyP22_INumberVectorProperty
libindidriver.so.1:_ZN4INDI9V4L2_Base15pwcsetframerateE10v4l2_fractPc
libindidriver.so.1:_ZN4INDI9V4L2_Base15start_capturingEPc
libindidriver.so.1:_ZN4INDI9V4L2_Base15stdgetframerateEv
libindidriver.so.1:_ZN4INDI9V4L2_Base15stdsetframerateE10v4l2_fractPc
libindidriver.so.1:_ZN4INDI9V4L2_Base16ioctl_set_formatE11v4l2_formatPc
libindidriver.so.1:_ZN4INDI9V4L2_Base16queryExtControlsEP22_INumberVectorPropertyPjPP22_ISwitchVectorPropertyS3_PKcS8_
libindidriver.so.1:_ZN4INDI9V4L2_Base16queryINTControlsEP22_INumberVectorProperty
libindidriver.so.1:_ZN4INDI9V4L2_Base16registerCallbackEPFvPvES1_
libindidriver.so.1:_ZN4INDI9V4L2_Base16setcaptureformatEjPc
libindidriver.so.1:_ZN4INDI9V4L2_Base17getcaptureformatsEP22_ISwitchVectorProperty
libindidriver.so.1:_ZN4INDI9V4L2_Base18enumerate_ext_ctrlEv
libindidriver.so.1:_ZN4INDI9V4L2_Base18setColorProcessingEbbb
libindidriver.so.1:_ZN4INDI9V4L2_Base4getUEv
libindidriver.so.1:_ZN4INDI9V4L2_Base4getVEv
libindidriver.so.1:_ZN4INDI9V4L2_Base4getYEv
libindidriver.so.1:_ZN4INDI9V4L2_Base6getBppEv
libindidriver.so.1:_ZN4INDI9V4L2_Base6xioctlEiiPvPKc
libindidriver.so.1:_ZN4INDI9V4L2_Base7setSizeEii
libindidriver.so.1:_ZN4INDI9V4L2_Base8doDecodeEb
libindidriver.so.1:_ZN4INDI9V4L2_Base8getWidthEv
libindidriver.so.1:_ZN4INDI9V4L2_Base8newFrameEiPv
libindidriver.so.1:_ZN4INDI9V4L2_Base8setinputEjPc
libindidriver.so.1:_ZN4INDI9V4L2_Base9getFormatEv
libindidriver.so.1:_ZN4INDI9V4L2_Base9getHeightEv
libindidriver.so.1:_ZN4INDI9V4L2_Base9getinputsEP22_ISwitchVectorProperty
libindidriver.so.1:_ZN4INDI9V4L2_Base9init_mmapEPc
libindidriver.so.1:_ZN4INDI9V4L2_Base9init_readEj
libindidriver.so.1:_ZN4INDI9V4L2_BaseC1Ev
libindidriver.so.1:_ZN4INDI9V4L2_BaseC2Ev
libindidriver.so.1:_ZN4INDI9V4L2_BaseD0Ev
libindidriver.so.1:_ZN4INDI9V4L2_BaseD1Ev
libindidriver.so.1:_ZN4INDI9V4L2_BaseD2Ev
libindidriver.so.1:_ZNK14DetectorDevice8getNAxisEv
libindidriver.so.1:_ZNK4INDI10BaseDevice12messageQueueB5cxx11Ei
libindidriver.so.1:_ZNK4INDI4Dome12getDomeStateEv
libindidriver.so.1:_ZNK4INDI4Dome13getMountStateEv
libindidriver.so.1:_ZNK4INDI4Dome15getWeatherStateEv
libindidriver.so.1:_ZNK4INDI4Dome17getDomeConnectionEv
libindidriver.so.1:_ZNK4INDI7CCDChip8getNAxisEv
libindidriver.so.1:_ZNK4INDI7Rotator20getRotatorConnectionEv
libindidriver.so.1:_ZNK4INDI7Weather20getWeatherConnectionEv
libindidriver.so.1:_ZNK4INDI8Property12getGroupNameEv
libindidriver.so.1:_ZNK4INDI8Property12getTimestampEv
libindidriver.so.1:_ZNK4INDI8Property13getDeviceNameEv
libindidriver.so.1:_ZNK4INDI8Property13getPermissionEv
libindidriver.so.1:_ZNK4INDI8Property7getNameEv
libindidriver.so.1:_ZNK4INDI8Property8getLabelEv
libindidriver.so.1:_ZNK4INDI8Property8getStateEv
libindidriver.so.1:_ZNK4INDI9Telescope12GetAxis1ParkEv
libindidriver.so.1:_ZNK4INDI9Telescope12GetAxis2ParkEv
libindidriver.so.1:_ZNK4INDI9Telescope16GetHomeDirectoryB5cxx11Ev
libindidriver.so.1:_ZNK4INDI9Telescope19GetAxis1ParkDefaultEv
libindidriver.so.1:_ZNK4INDI9Telescope19GetAxis2ParkDefaultEv
libindidriver.so.1:_ZNK4INDI9Telescope19GetScopeConfigIndexEv
libindidriver.so.1:_ZNK4INDI9Telescope22getTelescopeConnectionEv
libindidriver.so.1:_ZNK4INDI9Telescope8isLockedEv
libindidriver.so.1:_ZNK4INDI9Telescope9CheckFileERKNSt7__cxx1112basic_stringIcSt11char_traitsIcESaIcEEEb
libindidriver.so.1:_ZNK4INDI9V4L2_Base13is_compressedEv
libindidriver.so.1:_ZThn4976_N4INDI11FilterWheel11QueryFilterEv
libindidriver.so.1:_ZThn4976_N4INDI11FilterWheel12SelectFilterEi
libindidriver.so.1:_ZThn4976_N4INDI3CCD10GuideNorthEj
libindidriver.so.1:_ZThn4976_N4INDI3CCD10GuideSouthEj
libindidriver.so.1:_ZThn4976_N4INDI3CCD13GuideCompleteE12INDI_EQ_AXIS
libindidriver.so.1:_ZThn4976_N4INDI3CCD9GuideEastEj
libindidriver.so.1:_ZThn4976_N4INDI3CCD9GuideWestEj
libindidriver.so.1:_ZThn4976_N4INDI7FocuserD0Ev
libindidriver.so.1:_ZThn4976_N4INDI7FocuserD1Ev
libindidriver.so.1:addCallback
libindidriver.so.1:addTimer
libindidriver.so.1:addWorkProc
libindidriver.so.1:addXMLAtt
libindidriver.so.1:addXMLEle
libindidriver.so.1:appXMLEle
libindidriver.so.1:bayer16_2_rgb24
libindidriver.so.1:bayer2rgb24
libindidriver.so.1:bayer_grbg_to_rgb24
libindidriver.so.1:bayer_rggb_2rgb24
libindidriver.so.1:ccvt_420p_bgr24
libindidriver.so.1:ccvt_420p_bgr32
libindidriver.so.1:ccvt_420p_rgb24
libindidriver.so.1:ccvt_420p_rgb32
libindidriver.so.1:ccvt_bgr24_bgr32
libindidriver.so.1:ccvt_bgr24_rgb32
libindidriver.so.1:ccvt_bgr32_bgr24
libindidriver.so.1:ccvt_bgr32_rgb24
libindidriver.so.1:ccvt_rgb24_bgr32
libindidriver.so.1:ccvt_rgb24_rgb32
libindidriver.so.1:ccvt_rgb32_bgr24
libindidriver.so.1:ccvt_rgb32_rgb24
libindidriver.so.1:ccvt_yuyv_420p
libindidriver.so.1:ccvt_yuyv_bgr24
libindidriver.so.1:ccvt_yuyv_bgr32
libindidriver.so.1:ccvt_yuyv_rgb24
libindidriver.so.1:clientMsgCB
libindidriver.so.1:cloneXMLEle
libindidriver.so.1:crackDN
libindidriver.so.1:crackIPState
libindidriver.so.1:crackIPerm
libindidriver.so.1:crackISRule
libindidriver.so.1:crackISState
libindidriver.so.1:decode_jpeg_gray_raw
libindidriver.so.1:decode_jpeg_raw
libindidriver.so.1:decode_jpeg_rgb
libindidriver.so.1:deferLoop
libindidriver.so.1:deferLoop0
libindidriver.so.1:delLilXML
libindidriver.so.1:delXMLEle
libindidriver.so.1:dispatch
libindidriver.so.1:editXMLAtt
libindidriver.so.1:editXMLEle
libindidriver.so.1:encode_jpeg_raw
libindidriver.so.1:entityXML
libindidriver.so.1:escapeXML
libindidriver.so.1:eventLoop
libindidriver.so.1:extractISOTime
libindidriver.so.1:f_scansexa
libindidriver.so.1:findXMLAtt
libindidriver.so.1:findXMLAttValu
libindidriver.so.1:findXMLEle
libindidriver.so.1:from64tobits
libindidriver.so.1:from64tobits_fast
libindidriver.so.1:fs_sexa
libindidriver.so.1:getColorSpaceName
libindidriver.so.1:getQuantization
libindidriver.so.1:getQuantizationName
libindidriver.so.1:getSexComponents
libindidriver.so.1:getSexComponentsIID
libindidriver.so.1:getYCbCrEncoding
libindidriver.so.1:getYCbCrEncodingName
libindidriver.so.1:get_local_hour_angle
libindidriver.so.1:get_local_sidereal_time
libindidriver.so.1:get_usb_code_for_current_locale
libindidriver.so.1:hid_close
libindidriver.so.1:hid_enumerate
libindidriver.so.1:hid_error
libindidriver.so.1:hid_exit
libindidriver.so.1:hid_free_enumeration
libindidriver.so.1:hid_get_feature_report
libindidriver.so.1:hid_get_indexed_string
libindidriver.so.1:hid_get_manufacturer_string
libindidriver.so.1:hid_get_product_string
libindidriver.so.1:hid_get_serial_number_string
libindidriver.so.1:hid_init
libindidriver.so.1:hid_open
libindidriver.so.1:hid_open_path
libindidriver.so.1:hid_read
libindidriver.so.1:hid_read_timeout
libindidriver.so.1:hid_send_feature_report
libindidriver.so.1:hid_set_nonblocking
libindidriver.so.1:hid_write
libindidriver.so.1:initColorSpace
libindidriver.so.1:isPropDefined
libindidriver.so.1:lilxmlMalloc
libindidriver.so.1:linearize
libindidriver.so.1:main
libindidriver.so.1:mjpegtoyuv420p
libindidriver.so.1:nXMLAtt
libindidriver.so.1:nXMLEle
libindidriver.so.1:nameXMLAtt
libindidriver.so.1:newLilXML
libindidriver.so.1:nextXMLAtt
libindidriver.so.1:nextXMLEle
libindidriver.so.1:numberFormat
libindidriver.so.1:parentXMLAtt
libindidriver.so.1:parentXMLEle
libindidriver.so.1:parseXML
libindidriver.so.1:parseXMLChunk
libindidriver.so.1:pcdataXMLEle
libindidriver.so.1:pcdatalenXMLEle
libindidriver.so.1:permStr
libindidriver.so.1:prXMLEle
libindidriver.so.1:pstateStr
libindidriver.so.1:range24
libindidriver.so.1:range360
libindidriver.so.1:rangeDec
libindidriver.so.1:rangeHA
libindidriver.so.1:rangeY8
libindidriver.so.1:readXMLEle
libindidriver.so.1:readXMLFile
libindidriver.so.1:rmCallback
libindidriver.so.1:rmTimer
libindidriver.so.1:rmWorkProc
libindidriver.so.1:rmXMLAtt
libindidriver.so.1:ruleStr
libindidriver.so.1:sprXMLEle
libindidriver.so.1:sprlXMLEle
libindidriver.so.1:sstateStr
libindidriver.so.1:tagXMLEle
libindidriver.so.1:timestamp
libindidriver.so.1:to64frombits
libindidriver.so.1:tty_clr_trailing_read_lf
libindidriver.so.1:tty_connect
libindidriver.so.1:tty_disconnect
libindidriver.so.1:tty_error_msg
libindidriver.so.1:tty_nread_section
libindidriver.so.1:tty_read
libindidriver.so.1:tty_read_section
libindidriver.so.1:tty_set_debug
libindidriver.so.1:tty_set_gemini_udp_format
libindidriver.so.1:tty_timeout
libindidriver.so.1:tty_write
libindidriver.so.1:tty_write_string
libindidriver.so.1:valuXMLAtt
libindidriver.so.1:xmlv1
